; ModuleID = '47/5388.c'
source_filename = "47/5388.c"
target datalayout = "e-m:e-p270:32:32-p271:32:32-p272:64:64-i64:64-f80:128-n8:16:32:64-S128"
target triple = "x86_64-pc-linux-gnu"

@.str = private unnamed_addr constant [3 x i8] c"%d\00", align 1
@.str.1 = private unnamed_addr constant [4 x i8] c"%d \00", align 1

; Function Attrs: noinline nounwind uwtable
define dso_local void @main() #0 {
  %1 = alloca i32, align 4
  %2 = alloca [100 x i32], align 16
  %3 = alloca i32*, align 8
  %4 = getelementptr inbounds [100 x i32], [100 x i32]* %2, i64 0, i64 0
  store i32* %4, i32** %3, align 8
  %5 = call i32 (i8*, ...) @__isoc99_scanf(i8* getelementptr inbounds ([3 x i8], [3 x i8]* @.str, i64 0, i64 0), i32* %1)
  %6 = load i32*, i32** %3, align 8
  %7 = load i32, i32* %1, align 4
  %8 = sext i32 %7 to i64
  %9 = getelementptr inbounds i32, i32* %6, i64 %8
  %10 = getelementptr inbounds i32, i32* %9, i64 -1
  store i32* %10, i32** %3, align 8
  br label %11

11:                                               ; preds = %18, %0
  %12 = load i32*, i32** %3, align 8
  %13 = getelementptr inbounds [100 x i32], [100 x i32]* %2, i64 0, i64 0
  %14 = icmp uge i32* %12, %13
  br i1 %14, label %15, label %21

15:                                               ; preds = %11
  %16 = load i32*, i32** %3, align 8
  %17 = call i32 (i8*, ...) @__isoc99_scanf(i8* getelementptr inbounds ([4 x i8], [4 x i8]* @.str.1, i64 0, i64 0), i32* %16)
  br label %18

18:                                               ; preds = %15
  %19 = load i32*, i32** %3, align 8
  %20 = getelementptr inbounds i32, i32* %19, i32 -1
  store i32* %20, i32** %3, align 8
  br label %11

21:                                               ; preds = %11
  %22 = getelementptr inbounds [100 x i32], [100 x i32]* %2, i64 0, i64 0
  store i32* %22, i32** %3, align 8
  %23 = getelementptr inbounds [100 x i32], [100 x i32]* %2, i64 0, i64 0
  store i32* %23, i32** %3, align 8
  br label %24

24:                                               ; preds = %36, %21
  %25 = load i32*, i32** %3, align 8
  %26 = getelementptr inbounds [100 x i32], [100 x i32]* %2, i64 0, i64 0
  %27 = load i32, i32* %1, align 4
  %28 = sext i32 %27 to i64
  %29 = getelementptr inbounds i32, i32* %26, i64 %28
  %30 = getelementptr inbounds i32, i32* %29, i64 -1
  %31 = icmp ult i32* %25, %30
  br i1 %31, label %32, label %39

32:                                               ; preds = %24
  %33 = load i32*, i32** %3, align 8
  %34 = load i32, i32* %33, align 4
  %35 = call i32 (i8*, ...) @printf(i8* getelementptr inbounds ([4 x i8], [4 x i8]* @.str.1, i64 0, i64 0), i32 %34)
  br label %36

36:                                               ; preds = %32
  %37 = load i32*, i32** %3, align 8
  %38 = getelementptr inbounds i32, i32* %37, i32 1
  store i32* %38, i32** %3, align 8
  br label %24

39:                                               ; preds = %24
  %40 = load i32*, i32** %3, align 8
  %41 = load i32, i32* %40, align 4
  %42 = call i32 (i8*, ...) @printf(i8* getelementptr inbounds ([3 x i8], [3 x i8]* @.str, i64 0, i64 0), i32 %41)
  ret void
}

declare dso_local i32 @__isoc99_scanf(i8*, ...) #1

declare dso_local i32 @printf(i8*, ...) #1


!llvm.module.flags = !{!0}
!llvm.ident = !{!1}

!0 = !{i32 1, !"wchar_size", i32 4}
!1 = !{!"clang version 10.0.0-4ubuntu1 "}
